target datalayout = "e-m:e-p270:32:32-p271:32:32-p272:64:64-i64:64-i128:128-f80:128-n8:16:32:64-S128"
target triple = "x86_64-pc-linux-gnu"

%struct._e_prefs = type { ptr, i32, %struct.color_t, %struct.color_t, %struct.color_t, %struct.color_t, %struct.color_t, %struct.color_t, %struct.color_t, i8, i32, ptr, i32, %struct.color_t, %struct.color_t, i32, %struct.color_t, %struct.color_t, i32, %struct.color_t, %struct.color_t, %struct.color_t, %struct.color_t, ptr, ptr, i8, i8, i8, i32, i32, i32, ptr, i32, ptr, i8, i8, i8, ptr, ptr, ptr, i32, i32, i32, i32, i8, i32, i32, i32, i32, i32, ptr, i8, i8, i8, i8, i8, ptr, ptr, ptr, ptr, ptr, ptr, ptr, ptr, ptr, i8, i8, i8, i8, i32, i8, i8, i8, ptr, i32, i8, i8, i32, i8, i8, i8, i32, i8, i32, i8, i8, i8, i32, i32, i32, ptr, i8, i8, i8, i8, i8, i8, i32, i32, i8, i8, i8, i8, i32, i32, i32, i32, i8, i8, i32, i8, i8, i32, i32, i8, i8, i8, i32, i8, i8, i8 }
%struct.color_t = type { i16, i16, i16 }

@prefs = global %struct._e_prefs zeroinitializer, align 8

; Function Attrs: nounwind null_pointer_is_valid sspstrong uwtable
define zeroext i1 @prefs_has_layout_pane_content(i32 noundef %0) #0 {
  %2 = alloca i32, align 4
  store i32 %0, ptr %2, align 4
  %3 = load i32, ptr getelementptr inbounds nuw (%struct._e_prefs, ptr @prefs, i32 0, i32 46), align 8
  %4 = load i32, ptr %2, align 4
  %5 = icmp eq i32 %3, %4
  br i1 %5, label %14, label %6

6:                                                ; preds = %1
  %7 = load i32, ptr getelementptr inbounds nuw (%struct._e_prefs, ptr @prefs, i32 0, i32 47), align 4
  %8 = load i32, ptr %2, align 4
  %9 = icmp eq i32 %7, %8
  br i1 %9, label %14, label %10

10:                                               ; preds = %6
  %11 = load i32, ptr getelementptr inbounds nuw (%struct._e_prefs, ptr @prefs, i32 0, i32 48), align 8
  %12 = load i32, ptr %2, align 4
  %13 = icmp eq i32 %11, %12
  br label %14

14:                                               ; preds = %10, %6, %1
  %15 = phi i1 [ true, %6 ], [ true, %1 ], [ %13, %10 ]
  ret i1 %15
}