; Function Attrs: mustprogress nofree norecurse nosync nounwind null_pointer_is_valid sspstrong willreturn memory(read, argmem: none, inaccessiblemem: none) uwtable
define zeroext i1 @prefs_has_layout_pane_content(i32 noundef %0) local_unnamed_addr #15 {
  %2 = load i32, ptr getelementptr inbounds nuw (i8, ptr @prefs, i64 248), align 8
  %3 = icmp eq i32 %2, %0
  %4 = load i32, ptr getelementptr inbounds nuw (i8, ptr @prefs, i64 252), align 4
  %5 = icmp eq i32 %4, %0
  %or.cond = select i1 %3, i1 true, i1 %5
  br i1 %or.cond, label %9, label %6

6:                                                ; preds = %1
  %7 = load i32, ptr getelementptr inbounds nuw (i8, ptr @prefs, i64 256), align 8
  %8 = icmp eq i32 %7, %0
  br label %9

9:                                                ; preds = %6, %1
  %10 = phi i1 [ true, %1 ], [ %8, %6 ]
  ret i1 %10
}